target datalayout = "e-m:e-p270:32:32-p271:32:32-p272:64:64-i64:64-i128:128-f80:128-n8:16:32:64-S128"
target triple = "x86_64-pc-linux-gnu"

%struct.ident_t = type { i32, i32, i32, i32, ptr }
%"struct.faiss::Level1Quantizer" = type { ptr, i64, i8, i8, [6 x i8], %"struct.faiss::ClusteringParameters", ptr }
%"struct.faiss::ClusteringParameters" = type <{ i32, i32, i8, i8, i8, i8, i8, [3 x i8], i32, i32, i32, [4 x i8], i64, i8, i8, [6 x i8] }>
%"struct.faiss::Index" = type <{ ptr, i32, [4 x i8], i64, i8, i8, [2 x i8], i32, float, [4 x i8] }>
%"struct.std::_Vector_base.14" = type { %"struct.std::_Vector_base<float, std::allocator<float>>::_Vector_impl" }
%"struct.std::_Vector_base<float, std::allocator<float>>::_Vector_impl" = type { %"struct.std::_Vector_base<float, std::allocator<float>>::_Vector_impl_data" }
%"struct.std::_Vector_base<float, std::allocator<float>>::_Vector_impl_data" = type { ptr, ptr, ptr }

@1 = private unnamed_addr constant %struct.ident_t { i32 0, i32 514, i32 0, i32 22, ptr @0 }, align 8

; Function Attrs: mustprogress nounwind uwtable
define linkonce_odr noundef ptr @_ZNKSt6vectorIfSaIfEE11_M_data_ptrIfEEPT_S4_(ptr noundef nonnull align 8 dereferenceable(24) %0, ptr noundef %1) #0 comdat align 2 {
  %3 = alloca ptr, align 8
  %4 = alloca ptr, align 8
  store ptr %0, ptr %3, align 8, !tbaa !182
  store ptr %1, ptr %4, align 8, !tbaa !11
  %5 = load ptr, ptr %4, align 8, !tbaa !11
  ret ptr %5
}

; Function Attrs: mustprogress nounwind uwtable
define linkonce_odr noundef ptr @_ZNSt6vectorIfSaIfEE4dataEv(ptr noundef nonnull align 8 dereferenceable(24) %0) #0 comdat align 2 {
  %2 = alloca ptr, align 8
  store ptr %0, ptr %2, align 8, !tbaa !182
  %3 = load ptr, ptr %2, align 8
  %4 = getelementptr inbounds nuw %"struct.std::_Vector_base.14", ptr %3, i32 0, i32 0
  %5 = getelementptr inbounds nuw %"struct.std::_Vector_base<float, std::allocator<float>>::_Vector_impl_data", ptr %4, i32 0, i32 0
  %6 = load ptr, ptr %5, align 8, !tbaa !193
  %7 = call noundef ptr @_ZNKSt6vectorIfSaIfEE11_M_data_ptrIfEEPT_S4_(ptr noundef nonnull align 8 dereferenceable(24) %3, ptr noundef %6) #18
  ret ptr %7
}

; Function Attrs: noinline norecurse nounwind uwtable
define internal void @_ZNK5faiss33IndexIVFAdditiveQuantizerFastScan14encode_vectorsElPKfPKlPhb.omp_outlined(ptr noalias noundef %0, ptr noalias noundef %1, ptr noundef nonnull align 8 dereferenceable(8) %2, ptr noundef nonnull align 8 dereferenceable(8) %3, ptr noundef nonnull align 8 dereferenceable(24) %4, ptr noundef %5, ptr noundef nonnull align 8 dereferenceable(8) %6) #22 personality ptr @__gxx_personality_v0 {
  %8 = alloca ptr, align 8
  %9 = alloca ptr, align 8
  %10 = alloca ptr, align 8
  %11 = alloca ptr, align 8
  %12 = alloca ptr, align 8
  %13 = alloca ptr, align 8
  %14 = alloca ptr, align 8
  %15 = alloca i64, align 8
  %16 = alloca i64, align 8
  %17 = alloca i64, align 8
  %18 = alloca i64, align 8
  %19 = alloca i64, align 8
  %20 = alloca i64, align 8
  %21 = alloca i64, align 8
  %22 = alloca i32, align 4
  %23 = alloca i64, align 8
  store ptr %0, ptr %8, align 8, !tbaa !228
  store ptr %1, ptr %9, align 8, !tbaa !228
  store ptr %2, ptr %10, align 8, !tbaa !13
  store ptr %3, ptr %11, align 8, !tbaa !137
  store ptr %4, ptr %12, align 8, !tbaa !182
  store ptr %5, ptr %13, align 8, !tbaa !4
  store ptr %6, ptr %14, align 8, !tbaa !204
  %24 = load ptr, ptr %10, align 8, !tbaa !13
  %25 = load ptr, ptr %11, align 8, !tbaa !137
  %26 = load ptr, ptr %12, align 8, !tbaa !182
  %27 = load ptr, ptr %13, align 8, !tbaa !4
  %28 = load ptr, ptr %14, align 8, !tbaa !204
  call void @llvm.lifetime.start.p0(i64 8, ptr %15) #18
  call void @llvm.lifetime.start.p0(i64 8, ptr %16) #18
  %29 = load i64, ptr %24, align 8, !tbaa !9
  store i64 %29, ptr %16, align 8, !tbaa !9
  call void @llvm.lifetime.start.p0(i64 8, ptr %17) #18
  %30 = load i64, ptr %16, align 8, !tbaa !9
  %31 = sub nsw i64 %30, 0
  %32 = sdiv i64 %31, 1
  %33 = sub nsw i64 %32, 1
  store i64 %33, ptr %17, align 8, !tbaa !9
  call void @llvm.lifetime.start.p0(i64 8, ptr %18) #18
  store i64 0, ptr %18, align 8, !tbaa !9
  call void @llvm.lifetime.end.p0(i64 8, ptr %18) #18
  %34 = load i64, ptr %16, align 8, !tbaa !9
  %35 = icmp slt i64 0, %34
  br i1 %35, label %36, label %111

36:                                               ; preds = %7
  call void @llvm.lifetime.start.p0(i64 8, ptr %19) #18
  store i64 0, ptr %19, align 8, !tbaa !9
  call void @llvm.lifetime.start.p0(i64 8, ptr %20) #18
  %37 = load i64, ptr %17, align 8, !tbaa !9
  store i64 %37, ptr %20, align 8, !tbaa !9
  call void @llvm.lifetime.start.p0(i64 8, ptr %21) #18
  store i64 1, ptr %21, align 8, !tbaa !9
  call void @llvm.lifetime.start.p0(i64 4, ptr %22) #18
  store i32 0, ptr %22, align 4, !tbaa !17
  call void @llvm.lifetime.start.p0(i64 8, ptr %23) #18
  %38 = load ptr, ptr %8, align 8
  %39 = load i32, ptr %38, align 4, !tbaa !17
  call void @__kmpc_for_static_init_8(ptr @1, i32 %39, i32 34, ptr %22, ptr %19, ptr %20, ptr %21, i64 1, i64 1)
  %40 = load i64, ptr %20, align 8, !tbaa !9
  %41 = load i64, ptr %17, align 8, !tbaa !9
  %42 = icmp sgt i64 %40, %41
  br i1 %42, label %43, label %45

43:                                               ; preds = %36
  %44 = load i64, ptr %17, align 8, !tbaa !9
  br label %47

45:                                               ; preds = %36
  %46 = load i64, ptr %20, align 8, !tbaa !9
  br label %47

47:                                               ; preds = %45, %43
  %48 = phi i64 [ %44, %43 ], [ %46, %45 ]
  store i64 %48, ptr %20, align 8, !tbaa !9
  %49 = load i64, ptr %19, align 8, !tbaa !9
  store i64 %49, ptr %15, align 8, !tbaa !9
  br label %50

50:                                               ; preds = %104, %47
  %51 = load i64, ptr %15, align 8, !tbaa !9
  %52 = load i64, ptr %20, align 8, !tbaa !9
  %53 = icmp sle i64 %51, %52
  br i1 %53, label %55, label %54

54:                                               ; preds = %50
  br label %107

55:                                               ; preds = %50
  %56 = load i64, ptr %15, align 8, !tbaa !9
  %57 = mul nsw i64 %56, 1
  %58 = add nsw i64 0, %57
  store i64 %58, ptr %23, align 8, !tbaa !9
  %59 = load ptr, ptr %25, align 8, !tbaa !13
  %60 = load i64, ptr %23, align 8, !tbaa !9
  %61 = getelementptr inbounds i64, ptr %59, i64 %60
  %62 = load i64, ptr %61, align 8, !tbaa !9
  %63 = icmp slt i64 %62, 0
  br i1 %63, label %64, label %76

64:                                               ; preds = %55
  %65 = call noundef ptr @_ZNSt6vectorIfSaIfEE4dataEv(ptr noundef nonnull align 8 dereferenceable(24) %26) #18
  %66 = load i64, ptr %23, align 8, !tbaa !9
  %67 = getelementptr inbounds nuw %"struct.faiss::Index", ptr %27, i32 0, i32 1
  %68 = load i32, ptr %67, align 8, !tbaa !58
  %69 = sext i32 %68 to i64
  %70 = mul nsw i64 %66, %69
  %71 = getelementptr inbounds float, ptr %65, i64 %70
  %72 = getelementptr inbounds nuw %"struct.faiss::Index", ptr %27, i32 0, i32 1
  %73 = load i32, ptr %72, align 8, !tbaa !58
  %74 = sext i32 %73 to i64
  %75 = mul i64 4, %74
  call void @llvm.memset.p0.i64(ptr align 4 %71, i8 0, i64 %75, i1 false)
  br label %102

76:                                               ; preds = %55
  %77 = getelementptr inbounds i8, ptr %27, i64 48
  %78 = getelementptr inbounds nuw %"struct.faiss::Level1Quantizer", ptr %77, i32 0, i32 0
  %79 = load ptr, ptr %78, align 8, !tbaa !92
  %80 = load ptr, ptr %28, align 8, !tbaa !11
  %81 = load i64, ptr %23, align 8, !tbaa !9
  %82 = getelementptr inbounds nuw %"struct.faiss::Index", ptr %27, i32 0, i32 1
  %83 = load i32, ptr %82, align 8, !tbaa !58
  %84 = sext i32 %83 to i64
  %85 = mul nsw i64 %81, %84
  %86 = getelementptr inbounds float, ptr %80, i64 %85
  %87 = call noundef ptr @_ZNSt6vectorIfSaIfEE4dataEv(ptr noundef nonnull align 8 dereferenceable(24) %26) #18
  %88 = load i64, ptr %23, align 8, !tbaa !9
  %89 = getelementptr inbounds nuw %"struct.faiss::Index", ptr %27, i32 0, i32 1
  %90 = load i32, ptr %89, align 8, !tbaa !58
  %91 = sext i32 %90 to i64
  %92 = mul nsw i64 %88, %91
  %93 = getelementptr inbounds float, ptr %87, i64 %92
  %94 = load ptr, ptr %25, align 8, !tbaa !13
  %95 = load i64, ptr %23, align 8, !tbaa !9
  %96 = getelementptr inbounds i64, ptr %94, i64 %95
  %97 = load i64, ptr %96, align 8, !tbaa !9
  %98 = load ptr, ptr %79, align 8, !tbaa !60
  %99 = getelementptr inbounds ptr, ptr %98, i64 14
  %100 = load ptr, ptr %99, align 8
  invoke void %100(ptr noundef nonnull align 8 dereferenceable(36) %79, ptr noundef %86, ptr noundef %93, i64 noundef %97)
          to label %101 unwind label %112

101:                                              ; preds = %76
  br label %102

102:                                              ; preds = %101, %64
  br label %103

103:                                              ; preds = %102
  br label %104

104:                                              ; preds = %103
  %105 = load i64, ptr %15, align 8, !tbaa !9
  %106 = add nsw i64 %105, 1
  store i64 %106, ptr %15, align 8, !tbaa !9
  br label %50

107:                                              ; preds = %54
  br label %108

108:                                              ; preds = %107
  %109 = load ptr, ptr %8, align 8
  %110 = load i32, ptr %109, align 4, !tbaa !17
  call void @__kmpc_for_static_fini(ptr @1, i32 %110)
  call void @llvm.lifetime.end.p0(i64 8, ptr %23) #18
  call void @llvm.lifetime.end.p0(i64 4, ptr %22) #18
  call void @llvm.lifetime.end.p0(i64 8, ptr %21) #18
  call void @llvm.lifetime.end.p0(i64 8, ptr %20) #18
  call void @llvm.lifetime.end.p0(i64 8, ptr %19) #18
  br label %111

111:                                              ; preds = %108, %7
  call void @llvm.lifetime.end.p0(i64 8, ptr %17) #18
  call void @llvm.lifetime.end.p0(i64 8, ptr %16) #18
  call void @llvm.lifetime.end.p0(i64 8, ptr %15) #18
  ret void

112:                                              ; preds = %76
  %113 = landingpad { ptr, i32 }
          catch ptr null
  %114 = extractvalue { ptr, i32 } %113, 0
  call void @__clang_call_terminate(ptr %114) #26
  unreachable
}