; Function Attrs: noinline norecurse nounwind uwtable
define internal void @_ZNK5faiss33IndexIVFAdditiveQuantizerFastScan14encode_vectorsElPKfPKlPhb.omp_outlined(ptr noalias noundef readonly captures(none) %0, ptr noalias readnone captures(none) %1, ptr noundef nonnull readonly align 8 captures(none) dereferenceable(8) %2, ptr noundef nonnull readonly align 8 captures(none) dereferenceable(8) %3, ptr noundef nonnull readonly align 8 captures(none) dereferenceable(24) %4, ptr noundef readonly captures(none) %5, ptr noundef nonnull readonly align 8 captures(none) dereferenceable(8) %6) #25 personality ptr @__gxx_personality_v0 {
  %8 = alloca i64, align 8
  %9 = alloca i64, align 8
  %10 = alloca i64, align 8
  %11 = alloca i32, align 4
  %12 = load i64, ptr %2, align 8, !tbaa !56
  %13 = icmp sgt i64 %12, 0
  br i1 %13, label %14, label %49

14:                                               ; preds = %7
  %15 = add nsw i64 %12, -1
  call void @llvm.lifetime.start.p0(i64 8, ptr nonnull %8) #21
  store i64 0, ptr %8, align 8, !tbaa !56
  call void @llvm.lifetime.start.p0(i64 8, ptr nonnull %9) #21
  store i64 %15, ptr %9, align 8, !tbaa !56
  call void @llvm.lifetime.start.p0(i64 8, ptr nonnull %10) #21
  store i64 1, ptr %10, align 8, !tbaa !56
  call void @llvm.lifetime.start.p0(i64 4, ptr nonnull %11) #21
  store i32 0, ptr %11, align 4, !tbaa !70
  %16 = load i32, ptr %0, align 4, !tbaa !70
  call void @__kmpc_for_static_init_8(ptr nonnull @1, i32 %16, i32 34, ptr nonnull %11, ptr nonnull %8, ptr nonnull %9, ptr nonnull %10, i64 1, i64 1)
  %17 = load i64, ptr %9, align 8, !tbaa !56
  %18 = call i64 @llvm.smin.i64(i64 %17, i64 %15)
  store i64 %18, ptr %9, align 8, !tbaa !56
  %19 = load i64, ptr %8, align 8, !tbaa !56
  %.not19 = icmp sgt i64 %19, %18
  br i1 %.not19, label %._crit_edge, label %.lr.ph

.lr.ph:                                           ; preds = %14
  %20 = getelementptr inbounds nuw i8, ptr %5, i64 48
  %21 = getelementptr inbounds nuw i8, ptr %5, i64 8
  br label %22

22:                                               ; preds = %.lr.ph, %46
  %.020 = phi i64 [ %19, %.lr.ph ], [ %47, %46 ]
  %23 = load ptr, ptr %3, align 8, !tbaa !58
  %24 = getelementptr inbounds i64, ptr %23, i64 %.020
  %25 = load i64, ptr %24, align 8, !tbaa !56
  %26 = icmp slt i64 %25, 0
  br i1 %26, label %27, label %34

27:                                               ; preds = %22
  %28 = load ptr, ptr %4, align 8, !tbaa !65
  %29 = load i32, ptr %21, align 8, !tbaa !59
  %30 = sext i32 %29 to i64
  %31 = mul nsw i64 %.020, %30
  %32 = getelementptr inbounds float, ptr %28, i64 %31
  %33 = shl nsw i64 %30, 2
  call void @llvm.memset.p0.i64(ptr align 4 %32, i8 0, i64 %33, i1 false)
  br label %46

34:                                               ; preds = %22
  %35 = load ptr, ptr %20, align 8, !tbaa !97
  %36 = load ptr, ptr %6, align 8, !tbaa !57
  %37 = load i32, ptr %21, align 8, !tbaa !59
  %38 = sext i32 %37 to i64
  %39 = mul nsw i64 %.020, %38
  %40 = getelementptr inbounds float, ptr %36, i64 %39
  %41 = load ptr, ptr %4, align 8, !tbaa !65
  %42 = getelementptr inbounds float, ptr %41, i64 %39
  %43 = load ptr, ptr %35, align 8, !tbaa !61
  %44 = getelementptr inbounds nuw i8, ptr %43, i64 112
  %45 = load ptr, ptr %44, align 8
  invoke void %45(ptr noundef nonnull align 8 dereferenceable(36) %35, ptr noundef %40, ptr noundef %42, i64 noundef %25)
          to label %46 unwind label %50

46:                                               ; preds = %34, %27
  %47 = add nsw i64 %.020, 1
  %48 = load i64, ptr %9, align 8, !tbaa !56
  %.not.not = icmp slt i64 %.020, %48
  br i1 %.not.not, label %22, label %._crit_edge

._crit_edge:                                      ; preds = %46, %14
  call void @__kmpc_for_static_fini(ptr nonnull @1, i32 %16)
  call void @llvm.lifetime.end.p0(i64 4, ptr nonnull %11) #21
  call void @llvm.lifetime.end.p0(i64 8, ptr nonnull %10) #21
  call void @llvm.lifetime.end.p0(i64 8, ptr nonnull %9) #21
  call void @llvm.lifetime.end.p0(i64 8, ptr nonnull %8) #21
  br label %49

49:                                               ; preds = %._crit_edge, %7
  ret void

50:                                               ; preds = %34
  %51 = landingpad { ptr, i32 }
          catch ptr null
  %52 = extractvalue { ptr, i32 } %51, 0
  call void @__clang_call_terminate(ptr %52) #32
  unreachable
}